; Function Attrs: mustprogress uwtable
define void @_ZNK32pxrInternal_v0_24__pxrReserved__31UsdImagingPointInstancerAdapter25GetExtComputationPrimvarsERKNS_7UsdPrimERKNS_7SdfPathENS_15HdInterpolationEPKNS_26UsdImagingInstancerContextE(ptr dead_on_unwind noalias writable sret(%"class.std::vector.182") align 8 %0, ptr noundef nonnull align 8 dereferenceable(88) %1, ptr noundef nonnull align 8 dereferenceable(32) %2, ptr noundef nonnull align 4 dereferenceable(8) %3, i32 noundef %4, ptr nocapture readnone %5) unnamed_addr #0 align 2 personality ptr @__gxx_personality_v0 {
  %7 = alloca %"class.pxrInternal_v0_24__pxrReserved__::UsdImagingInstancerContext", align 8
  %8 = alloca ptr, align 8
  %9 = alloca %"class.pxrInternal_v0_24__pxrReserved__::UsdPrim", align 8
  call void @llvm.memset.p0.i64(ptr noundef nonnull align 8 dereferenceable(56) %7, i8 0, i64 56, i1 false)
  %10 = invoke noundef zeroext i1 @_ZNK32pxrInternal_v0_24__pxrReserved__31UsdImagingPointInstancerAdapter21_GetProtoPrimForChildERKNS_7UsdPrimERKNS_7SdfPathEPPKNS0_10_ProtoPrimEPNS_26UsdImagingInstancerContextE(ptr noundef nonnull align 8 dereferenceable(88) %1, ptr nonnull align 8 poison, ptr noundef nonnull align 4 dereferenceable(8) %3, ptr noundef nonnull %8, ptr noundef nonnull %7)
          to label %11 unwind label %54

11:                                               ; preds = %6
  br i1 %10, label %12, label %58

12:                                               ; preds = %11
  %13 = load ptr, ptr %8, align 8
  %14 = getelementptr inbounds nuw i8, ptr %13, i64 24
  %15 = load ptr, ptr %14, align 8
  invoke void @_ZNK32pxrInternal_v0_24__pxrReserved__31UsdImagingPointInstancerAdapter16_GetProtoUsdPrimERKNS0_10_ProtoPrimE(ptr dead_on_unwind nonnull writable sret(%"class.pxrInternal_v0_24__pxrReserved__::UsdPrim") align 8 %9, ptr noundef nonnull align 8 dereferenceable(88) %1, ptr noundef nonnull align 8 dereferenceable(53) %13)
          to label %16 unwind label %54

16:                                               ; preds = %12
  %17 = load ptr, ptr %15, align 8
  %18 = getelementptr inbounds i8, ptr %17, i64 472
  %19 = load ptr, ptr %18, align 8
  invoke void %19(ptr dead_on_unwind writable sret(%"class.std::vector.182") align 8 %0, ptr noundef nonnull align 8 dereferenceable(32) %15, ptr noundef nonnull align 8 dereferenceable(32) %9, ptr noundef nonnull align 4 dereferenceable(8) %3, i32 noundef %4, ptr noundef nonnull %7)
          to label %20 unwind label %56

20:                                               ; preds = %16
  %21 = getelementptr inbounds nuw i8, ptr %9, i64 24
  %22 = load ptr, ptr %21, align 8
  %23 = ptrtoint ptr %22 to i64
  %24 = and i64 %23, 7
  %.not.i.i.i.i = icmp eq i64 %24, 0
  br i1 %.not.i.i.i.i, label %_ZN32pxrInternal_v0_24__pxrReserved__7TfTokenD2Ev.exit.i.i, label %25

25:                                               ; preds = %20
  %26 = and i64 %23, -8
  %27 = inttoptr i64 %26 to ptr
  %28 = atomicrmw sub ptr %27, i32 2 release, align 4
  br label %_ZN32pxrInternal_v0_24__pxrReserved__7TfTokenD2Ev.exit.i.i

_ZN32pxrInternal_v0_24__pxrReserved__7TfTokenD2Ev.exit.i.i: ; preds = %25, %20
  %29 = getelementptr inbounds nuw i8, ptr %9, i64 16
  %30 = load i32, ptr %29, align 8
  %.not.i.i1.i.i = icmp eq i32 %30, 0
  br i1 %.not.i.i1.i.i, label %_ZN32pxrInternal_v0_24__pxrReserved__7SdfPathD2Ev.exit.i.i, label %31

31:                                               ; preds = %_ZN32pxrInternal_v0_24__pxrReserved__7TfTokenD2Ev.exit.i.i
  %32 = and i32 %30, 255
  %33 = lshr i32 %30, 8
  %34 = zext nneg i32 %32 to i64
  %35 = getelementptr inbounds [257 x ptr], ptr @_ZN32pxrInternal_v0_24__pxrReserved__8Sdf_PoolINS_15Sdf_PathPrimTagELj24ELj8ELj16384EE13_regionStartsE, i64 0, i64 %34
  %36 = load ptr, ptr %35, align 8
  %37 = mul nuw nsw i32 %33, 24
  %38 = zext nneg i32 %37 to i64
  %39 = getelementptr inbounds i8, ptr %36, i64 %38
  %40 = getelementptr inbounds nuw i8, ptr %39, i64 8
  %41 = atomicrmw sub ptr %40, i32 1 seq_cst, align 4
  %42 = and i32 %41, 2147483647
  %43 = icmp eq i32 %42, 1
  br i1 %43, label %44, label %_ZN32pxrInternal_v0_24__pxrReserved__7SdfPathD2Ev.exit.i.i

44:                                               ; preds = %31
  invoke void @_ZNK32pxrInternal_v0_24__pxrReserved__12Sdf_PathNode8_DestroyEv(ptr noundef nonnull align 8 dereferenceable(16) %39)
          to label %_ZN32pxrInternal_v0_24__pxrReserved__7SdfPathD2Ev.exit.i.i unwind label %45

45:                                               ; preds = %44
  %46 = landingpad { ptr, i32 }
          catch ptr null
  %47 = extractvalue { ptr, i32 } %46, 0
  call void @__clang_call_terminate(ptr %47) #28
  unreachable

_ZN32pxrInternal_v0_24__pxrReserved__7SdfPathD2Ev.exit.i.i: ; preds = %44, %31, %_ZN32pxrInternal_v0_24__pxrReserved__7TfTokenD2Ev.exit.i.i
  %48 = getelementptr inbounds nuw i8, ptr %9, i64 8
  %49 = load ptr, ptr %48, align 8
  %.not.i.i.i.i.i = icmp eq ptr %49, null
  br i1 %.not.i.i.i.i.i, label %_ZN32pxrInternal_v0_24__pxrReserved__7UsdPrimD2Ev.exit, label %50

50:                                               ; preds = %_ZN32pxrInternal_v0_24__pxrReserved__7SdfPathD2Ev.exit.i.i
  %51 = getelementptr inbounds nuw i8, ptr %49, i64 48
  %52 = atomicrmw sub ptr %51, i64 1 release, align 8
  %.not1.i.i.i.i.i = icmp eq i64 %52, 1
  br i1 %.not1.i.i.i.i.i, label %53, label %_ZN32pxrInternal_v0_24__pxrReserved__7UsdPrimD2Ev.exit

53:                                               ; preds = %50
  call void @_ZN32pxrInternal_v0_24__pxrReserved__12Usd_PrimDataD1Ev(ptr noundef nonnull align 8 dereferenceable(64) %49) #26
  call void @_ZdlPvm(ptr noundef nonnull %49, i64 noundef 64) #27
  br label %_ZN32pxrInternal_v0_24__pxrReserved__7UsdPrimD2Ev.exit

54:                                               ; preds = %58, %12, %6
  %55 = landingpad { ptr, i32 }
          cleanup
  br label %59

56:                                               ; preds = %16
  %57 = landingpad { ptr, i32 }
          cleanup
  call void @_ZN32pxrInternal_v0_24__pxrReserved__7UsdPrimD2Ev(ptr noundef nonnull align 8 dereferenceable(32) %9) #26
  br label %59

58:                                               ; preds = %11
  invoke void @_ZNK32pxrInternal_v0_24__pxrReserved__21UsdImagingPrimAdapter25GetExtComputationPrimvarsERKNS_7UsdPrimERKNS_7SdfPathENS_15HdInterpolationEPKNS_26UsdImagingInstancerContextE(ptr dead_on_unwind writable sret(%"class.std::vector.182") align 8 %0, ptr noundef nonnull align 8 dereferenceable(32) %1, ptr noundef nonnull align 8 dereferenceable(32) %2, ptr noundef nonnull align 4 dereferenceable(8) %3, i32 noundef %4, ptr noundef null)
          to label %_ZN32pxrInternal_v0_24__pxrReserved__7UsdPrimD2Ev.exit unwind label %54

_ZN32pxrInternal_v0_24__pxrReserved__7UsdPrimD2Ev.exit: ; preds = %53, %50, %_ZN32pxrInternal_v0_24__pxrReserved__7SdfPathD2Ev.exit.i.i, %58
  call void @_ZN32pxrInternal_v0_24__pxrReserved__26UsdImagingInstancerContextD2Ev(ptr noundef nonnull align 8 dereferenceable(56) %7) #26
  ret void

59:                                               ; preds = %56, %54
  %.pn = phi { ptr, i32 } [ %57, %56 ], [ %55, %54 ]
  call void @_ZN32pxrInternal_v0_24__pxrReserved__26UsdImagingInstancerContextD2Ev(ptr noundef nonnull align 8 dereferenceable(56) %7) #26
  resume { ptr, i32 } %.pn
}